EXPORTS
    DllMain @1
    SomeFunction @2
    _ZN10GameObjectC1ERKS_ @3
    _ZN10GameObjectC1Ev @4
    _ZN10GameObjectC2ERKS_ @5
    _ZN10GameObjectC2Ev @6
    _ZN10GameObjectD1Ev @7
    _ZN10GameObjectD2Ev @8
    _ZN10PackBuffer6attachEv @9
    _ZN10PackBuffer6detachEv @10
    _ZN10PackBuffer6updateExxPKv @11
    _ZN10PackBufferC1EjxPKv @12
    _ZN10PackBufferC2EjxPKv @13
    _ZN10PackBufferD1Ev @14
    _ZN10PackBufferD2Ev @15
    _ZN11FrameBuffer10attachDrawEv @16
    _ZN11FrameBuffer10attachReadEv @17
    _ZN11FrameBuffer11attachColorEjj @18
    _ZN11FrameBuffer11attachDepthEj @19
    _ZN11FrameBuffer11checkStatusEv @20
    _ZN11FrameBuffer12detachPointsEv @21
    _ZN11FrameBuffer13attachStencilEj @22
    _ZN11FrameBuffer13attachTextureEj @23
    _ZN11FrameBuffer18attachRenderBufferEP12RenderBuffer @24
    _ZN11FrameBuffer6attachEv @25
    _ZN11FrameBuffer6detachEv @26
    _ZN11FrameBuffer6updateExxPKv @27
    _ZN11FrameBufferC1Ej @28
    _ZN11FrameBufferC2Ej @29
    _ZN11FrameBufferD1Ev @30
    _ZN11FrameBufferD2Ev @31
    _ZN11IndexBuffer6attachEv @32
    _ZN11IndexBuffer6detachEv @33
    _ZN11IndexBuffer6updateExxPKv @34
    _ZN11IndexBufferC1EjxPKv @35
    _ZN11IndexBufferC2EjxPKv @36
    _ZN11IndexBufferD1Ev @37
    _ZN11IndexBufferD2Ev @38
    _ZN11PixelBuffer10attachPackEv @39
    _ZN11PixelBuffer12attachUnpackEv @40
    _ZN11PixelBuffer6attachEv @41
    _ZN11PixelBuffer6detachEv @42
    _ZN11PixelBuffer6updateExxPKv @43
    _ZN11PixelBufferC1EjxPKvj @44
    _ZN11PixelBufferC2EjxPKvj @45
    _ZN11PixelBufferD1Ev @46
    _ZN11PixelBufferD2Ev @47
    _ZN11TrackActionC1ERKS_ @48
    _ZN11TrackActionC1Ebiiii @49
    _ZN11TrackActionC2ERKS_ @50
    _ZN11TrackActionC2Ebiiii @51
    _ZN11TrackActionD1Ev @52
    _ZN11TrackActionD2Ev @53
    _ZN11TrackActionaSERKS_ @54
    _ZN11VertexArray4initEv @55
    _ZN11VertexArrayC1Ev @56
    _ZN11VertexArrayC2Ev @57
    _ZN11VertexArrayD1Ev @58
    _ZN11VertexArrayD2Ev @59
    _ZN12BufferObjectC1EjxPKv @60
    _ZN12BufferObjectC1Ev @61
    _ZN12BufferObjectC2EjxPKv @62
    _ZN12BufferObjectC2Ev @63
    _ZN12BufferObjectD1Ev @64
    _ZN12BufferObjectD2Ev @65
    _ZN12RenderBuffer6attachEv @66
    _ZN12RenderBuffer6detachEv @67
    _ZN12RenderBuffer6updateExxPKv @68
    _ZN12RenderBufferC1Ejjjii @69
    _ZN12RenderBufferC2Ejjjii @70
    _ZN12RenderBufferD1Ev @71
    _ZN12RenderBufferD2Ev @72
    _ZN12SoundManager7initBGMEjNSt7__cxx1112basic_stringIcSt11char_traitsIcESaIcEEE @73
    _ZN12SoundManager7initSFXEjNSt7__cxx1112basic_stringIcSt11char_traitsIcESaIcEEE @74
    _ZN12SoundManager7playBGMEj @75
    _ZN12SoundManager7playSFXEj @76
    _ZN12SoundManagerC1Eijii @77
    _ZN12SoundManagerC2Eijii @78
    _ZN12SoundManagerD1Ev @79
    _ZN12SoundManagerD2Ev @80
    _ZN12UnpackBuffer6attachEv @81
    _ZN12UnpackBuffer6detachEv @82
    _ZN12UnpackBuffer6updateExxPKv @83
    _ZN12UnpackBufferC1EjxPKv @84
    _ZN12UnpackBufferC2EjxPKv @85
    _ZN12UnpackBufferD1Ev @86
    _ZN12UnpackBufferD2Ev @87
    _ZN12VertexBuffer6attachEv @88
    _ZN12VertexBuffer6detachEv @89
    _ZN12VertexBuffer6updateExxPKv @90
    _ZN12VertexBufferC1EjxPKv @91
    _ZN12VertexBufferC2EjxPKv @92
    _ZN12VertexBufferD1Ev @93
    _ZN12VertexBufferD2Ev @94
    _ZN13ObjectManager11initBuffersEv @95
    _ZN13ObjectManager11initLayoutsEv @96
    _ZN13ObjectManager11updateColorEP6Spritej @97
    _ZN13ObjectManager11updateScaleEP6Spritej @98
    _ZN13ObjectManager12updateRotateEP6Spritej @99
    _ZN13ObjectManager13initDataArrayEv @100
    _ZN13ObjectManager13updateTextureEP6Spritej @101
    _ZN13ObjectManager14updatePositionEP6Spritej @102
    _ZN13ObjectManager15updateDataArrayEP6Spritej @103
    _ZN13ObjectManager15updateEnititiesEv @104
    _ZN13ObjectManager15updateTranslateEP6Spritej @105
    _ZN13ObjectManager18updateVertexBufferEv @106
    _ZN13ObjectManager6updateEv @107
    _ZN13ObjectManager9batchDrawEj @108
    _ZN13ObjectManagerC1Ejj @109
    _ZN13ObjectManagerC2Ejj @110
    _ZN13ObjectManagerD1Ev @111
    _ZN13ObjectManagerD2Ev @112
    _ZN13TextureBuffer6attachEv @113
    _ZN13TextureBuffer6detachEv @114
    _ZN13TextureBuffer6updateExxPKv @115
    _ZN13TextureBufferC1EjxPKvjj @116
    _ZN13TextureBufferC2EjxPKvjj @117
    _ZN13TextureBufferD1Ev @118
    _ZN13TextureBufferD2Ev @119
    _ZN13TimerDelegate6onTickEv @120
    _ZN13TimerDelegateC1Ev @121
    _ZN13TimerDelegateC2Ev @122
    _ZN13TimerDelegateD1Ev @123
    _ZN13TimerDelegateD2Ev @124
    _ZN13TrackDelegate10onBackwardEv @125
    _ZN13TrackDelegate10onKeyFrameEi @126
    _ZN13TrackDelegate11onLastFrameEv @127
    _ZN13TrackDelegate12onFirstFrameEv @128
    _ZN13TrackDelegate13onLoopForwardEv @129
    _ZN13TrackDelegate14onLoopBackwardEv @130
    _ZN13TrackDelegate14onStateChangedEi @131
    _ZN13TrackDelegate14onValueChangedEf @132
    _ZN13TrackDelegate18onDirectionChangedEi @133
    _ZN13TrackDelegate19onValueChangedToOneEv @134
    _ZN13TrackDelegate20onValueChangedToZeroEv @135
    _ZN13TrackDelegate21onHeadPositionChangedEi @136
    _ZN13TrackDelegate28onHeadPositionChangedForwardEi @137
    _ZN13TrackDelegate29onHeadPositionChangedBackwardEi @138
    _ZN13TrackDelegate6onStopEv @139
    _ZN13TrackDelegate7onPauseEv @140
    _ZN13TrackDelegate9onForwardEv @141
    _ZN13TrackDelegateC1Ev @142
    _ZN13TrackDelegateC2Ev @143
    _ZN13TrackDelegateD0Ev @144
    _ZN13TrackDelegateD1Ev @145
    _ZN13TrackDelegateD2Ev @146
    _ZN14EntityDelegateC1Ev @147
    _ZN14EntityDelegateC2Ev @148
    _ZN14EntityDelegateD0Ev @149
    _ZN14EntityDelegateD1Ev @150
    _ZN14EntityDelegateD2Ev @151
    _ZN14GraphicElementC1Ev @152
    _ZN14GraphicElementC2Ev @153
    _ZN14GraphicElementD1Ev @154
    _ZN14GraphicElementD2Ev @155
    _ZN14SpriteDelegateC1Ev @156
    _ZN14SpriteDelegateC2Ev @157
    _ZN14SpriteDelegateD0Ev @158
    _ZN14SpriteDelegateD1Ev @159
    _ZN14SpriteDelegateD2Ev @160
    _ZN14TextureManager11initTextureEjNSt7__cxx1112basic_stringIcSt11char_traitsIcESaIcEEEjj @161
    _ZN14TextureManagerC1Ev @162
    _ZN14TextureManagerC2Ev @163
    _ZN14TextureManagerD1Ev @164
    _ZN14TextureManagerD2Ev @165
    _ZN14TileMapManager11initBuffersEv @166
    _ZN14TileMapManager11initLayoutsEv @167
    _ZN14TileMapManager11updateColorEP6Spritej @168
    _ZN14TileMapManager11updateScaleEP6Spritej @169
    _ZN14TileMapManager12updateRotateEP6Spritej @170
    _ZN14TileMapManager13loadFirstPageEj @171
    _ZN14TileMapManager13loadThirdPageEj @172
    _ZN14TileMapManager13updateTextureEP6Spritej @173
    _ZN14TileMapManager14loadFourthPageEj @174
    _ZN14TileMapManager14loadSecondPageEj @175
    _ZN14TileMapManager14updatePositionEP6Spritej @176
    _ZN14TileMapManager15updateEnititiesEv @177
    _ZN14TileMapManager15updateTranslateEP6Spritej @178
    _ZN14TileMapManager17updateVertexArrayEP6Spritej @179
    _ZN14TileMapManager18updateVertexBufferEv @180
    _ZN14TileMapManager6updateEv @181
    _ZN14TileMapManager8loadPageEffjj @182
    _ZN14TileMapManager8movePageEffj @183
    _ZN14TileMapManager9batchDrawEv @184
    _ZN14TileMapManagerC1EjjPmjjjjjj @185
    _ZN14TileMapManagerC2EjjPmjjjjjj @186
    _ZN14TileMapManagerD1Ev @187
    _ZN14TileMapManagerD2Ev @188
    _ZN14TransformationC1Ev @189
    _ZN14TransformationC2Ev @190
    _ZN14TransformationD1Ev @191
    _ZN14TransformationD2Ev @192
    _ZN16KeyFrameDelegate10onBackwardEv @193
    _ZN16KeyFrameDelegate13onLoopForwardEv @194
    _ZN16KeyFrameDelegate14onLoopBackwardEv @195
    _ZN16KeyFrameDelegate9onForwardEv @196
    _ZN16KeyFrameDelegateC1Ev @197
    _ZN16KeyFrameDelegateC2Ev @198
    _ZN16KeyFrameDelegateD0Ev @199
    _ZN16KeyFrameDelegateD1Ev @200
    _ZN16KeyFrameDelegateD2Ev @201
    _ZN18VertexBufferLayout6attachEv @202
    _ZN18VertexBufferLayout7dettachEv @203
    _ZN18VertexBufferLayoutC1EjPKcjhjj @204
    _ZN18VertexBufferLayoutC1Ev @205
    _ZN18VertexBufferLayoutC2EjPKcjhjj @206
    _ZN18VertexBufferLayoutC2Ev @207
    _ZN18VertexBufferLayoutD1Ev @208
    _ZN18VertexBufferLayoutD2Ev @209
    _ZN4GameC1EbNSt7__cxx1112basic_stringIcSt11char_traitsIcESaIcEEEffff @210
    _ZN4GameC2EbNSt7__cxx1112basic_stringIcSt11char_traitsIcESaIcEEEffff @211
    _ZN4GameD1Ev @212
    _ZN4GameD2Ev @213
    _ZN5Scene6updateEv @214
    _ZN5SceneC1Ejbffffjjfffffffffffffff @215
    _ZN5SceneC2Ejbffffjjfffffffffffffff @216
    _ZN5SceneD0Ev @217
    _ZN5SceneD1Ev @218
    _ZN5SceneD2Ev @219
    _ZN5Timer6updateEv @220
    _ZN5TimerC1Ej @221
    _ZN5TimerC2Ej @222
    _ZN5TimerD1Ev @223
    _ZN5TimerD2Ev @224
    _ZN5Track11goToLastKeyEv @225
    _ZN5Track11updateEventEv @226
    _ZN5Track12goToFirstKeyEv @227
    _ZN5Track14goToKeyAndStopEi @228
    _ZN5Track15applyDerivativeEv @229
    _ZN5Track17goToKeyAndForwardEi @230
    _ZN5Track18goToKeyAndBackwardEi @231
    _ZN5Track18goToLastKeyAndStopEv @232
    _ZN5Track19calculateDerivativeEv @233
    _ZN5Track19goToFirstKeyAndStopEv @234
    _ZN5Track21goToLastKeyAndForwardEv @235
    _ZN5Track22goToFirstKeyAndForwardEv @236
    _ZN5Track22goToLastKeyAndBackwardEv @237
    _ZN5Track23goToFirstKeyAndBackwardEv @238
    _ZN5Track4stopEv @239
    _ZN5Track5pauseEv @240
    _ZN5Track6updateEv @241
    _ZN5Track7forwardEv @242
    _ZN5Track7goToKeyEi @243
    _ZN5Track8backwardEv @244
    _ZN5TrackC1ERKS_ @245
    _ZN5TrackC1Eiiiibf @246
    _ZN5TrackC2ERKS_ @247
    _ZN5TrackC2Eiiiibf @248
    _ZN5TrackD1Ev @249
    _ZN5TrackD2Ev @250
    _ZN5TrackaSERKS_ @251
    _ZN6Camera10initCameraEbjjfffffffffffffff @252
    _ZN6Camera10initOriginEfff @253
    _ZN6Camera14initProjectionEjffffff @254
    _ZN6Camera8initViewEfffffffff @255
    _ZN6CameraC1Ebjjfffffffffffffff @256
    _ZN6CameraC2Ebjjfffffffffffffff @257
    _ZN6CameraD1Ev @258
    _ZN6CameraD2Ev @259
    _ZN6Entity6updateEv @260
    _ZN6EntityC1ERKS_ @261
    _ZN6EntityC1Ev @262
    _ZN6EntityC2ERKS_ @263
    _ZN6EntityC2Ev @264
    _ZN6EntityD1Ev @265
    _ZN6EntityD2Ev @266
    _ZN6EntityaSERKS_ @267
    _ZN6HitBox4initEffff @268
    _ZN6HitBox5resetEv @269
    _ZN6HitBoxC1ERKS_ @270
    _ZN6HitBoxC1Effff @271
    _ZN6HitBoxC1Ev @272
    _ZN6HitBoxC2ERKS_ @273
    _ZN6HitBoxC2Effff @274
    _ZN6HitBoxC2Ev @275
    _ZN6HitBoxD1Ev @276
    _ZN6HitBoxD2Ev @277
    _ZN6HitBoxaSERKS_ @278
    _ZN6HitBoxmiERKS_ @279
    _ZN6HitBoxplERKS_ @280
    _ZN6Shader10initShaderEPKcS1_ @281
    _ZN6Shader10loadShaderERNSt7__cxx1112basic_stringIcSt11char_traitsIcESaIcEEEj @282
    _ZN6Shader6attachEv @283
    _ZN6Shader6detachEv @284
    _ZN6Shader8loadFileEPKcRNSt7__cxx1112basic_stringIcSt11char_traitsIcESaIcEEE @285
    _ZN6ShaderC1ENSt7__cxx1112basic_stringIcSt11char_traitsIcESaIcEEEPKcS7_ @286
    _ZN6ShaderC1Ev @287
    _ZN6ShaderC2ENSt7__cxx1112basic_stringIcSt11char_traitsIcESaIcEEEPKcS7_ @288
    _ZN6ShaderC2Ev @289
    _ZN6ShaderD1Ev @290
    _ZN6ShaderD2Ev @291
    _ZN6Sprite12setAnimationEiiifj @292
    _ZN6Sprite4initEjfffffiiifj @293
    _ZN6Sprite6updateEv @294
    _ZN6SpriteC1ERKS_ @295
    _ZN6SpriteC1Ejfffffiiifj @296
    _ZN6SpriteC2ERKS_ @297
    _ZN6SpriteC2Ejfffffiiifj @298
    _ZN6SpriteD1Ev @299
    _ZN6SpriteD2Ev @300
    _ZN6SpriteaSERKS_ @301
    _ZN6SpritemlERS_ @302
    _ZN7Texture11loadImage2DEv @303
    _ZN7Texture11loadImage3DEv @304
    _ZN7Texture14reserveImage2DEv @305
    _ZN7Texture14reserveImage3DEv @306
    _ZN7Texture4initENSt7__cxx1112basic_stringIcSt11char_traitsIcESaIcEEES5_jjjjjjjj @307
    _ZN7Texture6attachEj @308
    _ZN7TextureC1ENSt7__cxx1112basic_stringIcSt11char_traitsIcESaIcEEES5_jjjjjjjj @309
    _ZN7TextureC1ERS_ @310
    _ZN7TextureC2ENSt7__cxx1112basic_stringIcSt11char_traitsIcESaIcEEES5_jjjjjjjj @311
    _ZN7TextureC2ERS_ @312
    _ZN7TextureD1Ev @313
    _ZN7TextureD2Ev @314
    _ZN7TextureaSERKS_ @315
    _ZN8FSMStateC1Ev @316
    _ZN8FSMStateC2Ev @317
    _ZN8FSMStateD1Ev @318
    _ZN8FSMStateD2Ev @319
    _ZN8KeyFrame5resetEv @320
    _ZN8KeyFrameC1ERKS_ @321
    _ZN8KeyFrameC1Eifiibiiii @322
    _ZN8KeyFrameC2ERKS_ @323
    _ZN8KeyFrameC2Eifiibiiii @324
    _ZN8KeyFrameD1Ev @325
    _ZN8KeyFrameD2Ev @326
    _ZN8KeyFrameaSERKS_ @327
    _ZN8Renderer10initOpenGLEv @328
    _ZN8Renderer11checkErrorsEv @329
    _ZN8Renderer11initGlobalsEv @330
    _ZN8Renderer11initShadersEv @331
    _ZN8Renderer6updateEv @332
    _ZN8Renderer7initSDLEv @333
    _ZN8Renderer8initGlewEv @334
    _ZN8RendererC1EbNSt7__cxx1112basic_stringIcSt11char_traitsIcESaIcEEEjjjj @335
    _ZN8RendererC2EbNSt7__cxx1112basic_stringIcSt11char_traitsIcESaIcEEEjjjj @336
    _ZN8RendererD1Ev @337
    _ZN8RendererD2Ev @338
    _ZN9Mechanics6updateEv @339
    _ZN9MechanicsC1ERKS_ @340
    _ZN9MechanicsC1Ev @341
    _ZN9MechanicsC2ERKS_ @342
    _ZN9MechanicsC2Ev @343
    _ZN9MechanicsD1Ev @344
    _ZN9MechanicsD2Ev @345
    _ZN9MechanicsaSERKS_ @346
    _ZNK10PackBuffer5printEv @347
    _ZNK11FrameBuffer5printEv @348
    _ZNK11IndexBuffer5printEv @349
    _ZNK11PixelBuffer5printEv @350
    _ZNK11TrackActioneqERKS_ @351
    _ZNK11TrackActionltERKS_ @352
    _ZNK11VertexArray6attachEv @353
    _ZNK11VertexArray6detachEv @354
    _ZNK12BufferObject5printEv @355
    _ZNK12RenderBuffer5printEv @356
    _ZNK12SoundManager5printEv @357
    _ZNK12UnpackBuffer5printEv @358
    _ZNK12VertexBuffer5printEv @359
    _ZNK13ObjectManager13printEntitiesEv @360
    _ZNK13ObjectManager14printDataArrayEv @361
    _ZNK13ObjectManager5printEv @362
    _ZNK13ObjectManager9printInfoEv @363
    _ZNK13TextureBuffer5printEv @364
    _ZNK14TileMapManager10printTilesEv @365
    _ZNK14TileMapManager12printSpritesEv @366
    _ZNK14TileMapManager14printDataArrayEv @367
    _ZNK14TileMapManager5printEv @368
    _ZNK14TileMapManager9printInfoEv @369
    _ZNK14Transformation5printEv @370
    _ZNK18VertexBufferLayout5printEv @371
    _ZNK5Scene5printEv @372
    _ZNK5Track5printEv @373
    _ZNK5TrackeqERKS_ @374
    _ZNK5TrackltERKS_ @375
    _ZNK6Camera5printEv @376
    _ZNK6Entity5printEv @377
    _ZNK6EntityeqERKS_ @378
    _ZNK6EntitygtERKS_ @379
    _ZNK6EntityltERKS_ @380
    _ZNK6HitBox5printEv @381
    _ZNK6HitBoxeqERKS_ @382
    _ZNK6HitBoxgtERKS_ @383
    _ZNK6HitBoxltERKS_ @384
    _ZNK6HitBoxmlERKS_ @385
    _ZNK6Sprite5printEv @386
    _ZNK6SpriteeqERKS_ @387
    _ZNK6SpritegtERKS_ @388
    _ZNK6SpriteltERKS_ @389
    _ZNK7Texture5printEv @390
    _ZNK7Texture6detachEv @391
    _ZNK7TextureeqERKS_ @392
    _ZNK7TexturegtERKS_ @393
    _ZNK7TextureltERKS_ @394
    _ZNK8FSMState5printEv @395
    _ZNK8KeyFrameeqERKS_ @396
    _ZNK8KeyFramegtERKS_ @397
    _ZNK8KeyFrameltERKS_ @398
    _ZNK9Mechanics5printEv @399
    _ZNK9MechanicseqERKS_ @400
    _ZNK9MechanicsgtERKS_ @401
    _ZNK9MechanicsltERKS_ @402
    _ZNK9MechanicsmlERKS_ @403
